target datalayout = "e-m:e-p270:32:32-p271:32:32-p272:64:64-i64:64-i128:128-f80:128-n8:16:32:64-S128"
target triple = "x86_64-pc-linux-gnu"

%class.QString = type { ptr }
%class.TFHandle = type <{ %class.Handle, i32, [4 x i8], ptr, i8, [7 x i8] }>
%class.Handle = type { %class.QGraphicsObject, %class.QColor, i32, ptr }
%class.QGraphicsObject = type { %class.QObject, %class.QGraphicsItem }
%class.QObject = type { ptr, %class.QScopedPointer }
%class.QScopedPointer = type { ptr }
%class.QGraphicsItem = type { ptr, %class.QScopedPointer.16 }
%class.QScopedPointer.16 = type { ptr }
%class.QColor = type <{ i32, %"union.QColor::CT", [2 x i8] }>
%"union.QColor::CT" = type { %struct.anon }
%struct.anon = type { i16, i16, i16, i16, i16 }
%class.QPointF = type { double, double }
%class.QFlags = type { i32 }
%class.QualityMapperDialog = type { %class.QDockWidget, %"class.Ui::QualityMapperDialogClass", ptr, ptr, %class.QGraphicsScene, [3 x ptr], double, i8, i8, %class.QList, i32, ptr, ptr, ptr, %class.QGraphicsScene, ptr, [3 x %class.QList.22], ptr, %class.QString, %class.QList, %class.QList, i8, %class.QList.25, %class.QList, ptr, ptr }
%class.QDockWidget = type { %class.QWidget }
%class.QWidget = type { %class.QObject, %class.QPaintDevice, ptr }
%class.QPaintDevice = type { ptr, i16, ptr }
%"class.Ui::QualityMapperDialogClass" = type { %class.Ui_QualityMapperDialogClass }
%class.Ui_QualityMapperDialogClass = type { ptr, ptr, ptr, ptr, ptr, ptr, ptr, ptr, ptr, ptr, ptr, ptr, ptr, ptr, ptr, ptr, ptr, ptr, ptr, ptr, ptr, ptr, ptr, ptr, ptr, ptr, ptr, ptr, ptr, ptr, ptr, ptr, ptr, ptr, ptr, ptr, ptr, ptr, ptr, ptr, ptr, ptr, ptr, ptr, ptr, ptr, ptr, ptr, ptr, ptr, ptr, ptr, ptr, ptr, ptr, ptr, ptr, ptr, ptr, ptr, ptr, ptr, ptr, ptr, ptr, ptr, ptr, ptr }
%class.QGraphicsScene = type { %class.QObject }
%class.QList.22 = type { %union.anon.24 }
%union.anon.24 = type { %struct.QListData }
%struct.QListData = type { ptr }
%class.QList.25 = type { %union.anon.27 }
%union.anon.27 = type { %struct.QListData }
%class.QList = type { %union.anon }
%union.anon = type { %struct.QListData }
%class.QFont = type <{ %class.QExplicitlySharedDataPointer, i32, [4 x i8] }>
%class.QExplicitlySharedDataPointer = type { ptr }
%class.QRect = type { i32, i32, i32, i32 }
%class.QWidgetData = type { i64, i32, %class.QFlags, i32, %class.QRect, [4 x i8], %class.QPalette, %class.QFont, %class.QRect }
%class.QPalette = type <{ ptr, %union.anon.173, [4 x i8] }>
%union.anon.173 = type { %"struct.QPalette::Data" }
%"struct.QPalette::Data" = type { i32 }
%struct.CHART_INFO = type { ptr, float, float, float, float, i32, i32 }

; Function Attrs: mustprogress nounwind uwtable
define linkonce_odr noundef i32 @_ZNK5QRect6heightEv(ptr noundef nonnull align 4 dereferenceable(16) %0) #4 comdat align 2 {
  %2 = alloca ptr, align 8
  store ptr %0, ptr %2, align 8
  %3 = load ptr, ptr %2, align 8
  %4 = getelementptr inbounds %class.QRect, ptr %3, i32 0, i32 3
  %5 = load i32, ptr %4, align 4
  %6 = getelementptr inbounds %class.QRect, ptr %3, i32 0, i32 1
  %7 = load i32, ptr %6, align 4
  %8 = sub nsw i32 %5, %7
  %9 = add nsw i32 %8, 1
  ret i32 %9
}

; Function Attrs: mustprogress nounwind uwtable
define linkonce_odr noundef i32 @_ZNK7QWidget6heightEv(ptr noundef nonnull align 8 dereferenceable(48) %0) #4 comdat align 2 {
  %2 = alloca ptr, align 8
  store ptr %0, ptr %2, align 8
  %3 = load ptr, ptr %2, align 8
  %4 = getelementptr inbounds %class.QWidget, ptr %3, i32 0, i32 2
  %5 = load ptr, ptr %4, align 8
  %6 = getelementptr inbounds %class.QWidgetData, ptr %5, i32 0, i32 4
  %7 = call noundef i32 @_ZNK5QRect6heightEv(ptr noundef nonnull align 4 dereferenceable(16) %6) #3
  ret i32 %7
}

; Function Attrs: mustprogress nounwind uwtable
define linkonce_odr void @_ZN7QPointFC2Edd(ptr noundef nonnull align 8 dereferenceable(16) %0, double noundef %1, double noundef %2) unnamed_addr #4 comdat align 2 {
  %4 = alloca ptr, align 8
  %5 = alloca double, align 8
  %6 = alloca double, align 8
  store ptr %0, ptr %4, align 8
  store double %1, ptr %5, align 8
  store double %2, ptr %6, align 8
  %7 = load ptr, ptr %4, align 8
  %8 = getelementptr inbounds %class.QPointF, ptr %7, i32 0, i32 0
  %9 = load double, ptr %5, align 8
  store double %9, ptr %8, align 8
  %10 = getelementptr inbounds %class.QPointF, ptr %7, i32 0, i32 1
  %11 = load double, ptr %6, align 8
  store double %11, ptr %10, align 8
  ret void
}

; Function Attrs: mustprogress nounwind uwtable
define linkonce_odr noundef float @_ZN10CHART_INFO11lowerBorderEv(ptr noundef nonnull align 8 dereferenceable(32) %0) #4 comdat align 2 {
  %2 = alloca ptr, align 8
  store ptr %0, ptr %2, align 8
  %3 = load ptr, ptr %2, align 8
  %4 = getelementptr inbounds %struct.CHART_INFO, ptr %3, i32 0, i32 0
  %5 = load ptr, ptr %4, align 8
  %6 = call noundef i32 @_ZNK7QWidget6heightEv(ptr noundef nonnull align 8 dereferenceable(48) %5)
  %7 = sitofp i32 %6 to float
  %8 = fsub float %7, 1.000000e+01
  ret float %8
}

; Function Attrs: mustprogress nounwind uwtable
define linkonce_odr noundef i32 @_ZN8TFHandle10getChannelEv(ptr noundef nonnull align 8 dereferenceable(81) %0) #4 comdat align 2 {
  %2 = alloca ptr, align 8
  store ptr %0, ptr %2, align 8
  %3 = load ptr, ptr %2, align 8
  %4 = getelementptr inbounds %class.TFHandle, ptr %3, i32 0, i32 1
  %5 = load i32, ptr %4, align 8
  ret i32 %5
}

; Function Attrs: mustprogress uwtable
define linkonce_odr void @_ZN13QGraphicsItem6setPosEdd(ptr noundef nonnull align 8 dereferenceable(16) %0, double noundef %1, double noundef %2) #5 comdat align 2 {
  %4 = alloca ptr, align 8
  %5 = alloca double, align 8
  %6 = alloca double, align 8
  %7 = alloca %class.QPointF, align 8
  store ptr %0, ptr %4, align 8
  store double %1, ptr %5, align 8
  store double %2, ptr %6, align 8
  %8 = load ptr, ptr %4, align 8
  %9 = load double, ptr %5, align 8
  %10 = load double, ptr %6, align 8
  call void @_ZN7QPointFC2Edd(ptr noundef nonnull align 8 dereferenceable(16) %7, double noundef %9, double noundef %10)
  call void @_ZN13QGraphicsItem6setPosERK7QPointF(ptr noundef nonnull align 8 dereferenceable(16) %8, ptr noundef nonnull align 8 dereferenceable(16) %7)
  ret void
}

; Function Attrs: mustprogress nounwind uwtable
define linkonce_odr noundef float @_ZN10CHART_INFO11upperBorderEv(ptr noundef nonnull align 8 dereferenceable(32) %0) #4 comdat align 2 {
  %2 = alloca ptr, align 8
  store ptr %0, ptr %2, align 8
  ret float 1.000000e+01
}

; Function Attrs: mustprogress uwtable
define linkonce_odr noundef float @_ZN10CHART_INFO11chartHeightEv(ptr noundef nonnull align 8 dereferenceable(32) %0) #5 comdat align 2 {
  %2 = alloca ptr, align 8
  store ptr %0, ptr %2, align 8
  %3 = load ptr, ptr %2, align 8
  %4 = call noundef float @_ZN10CHART_INFO11lowerBorderEv(ptr noundef nonnull align 8 dereferenceable(32) %3)
  %5 = call noundef float @_ZN10CHART_INFO11upperBorderEv(ptr noundef nonnull align 8 dereferenceable(32) %3)
  %6 = fsub float %4, %5
  ret float %6
}

; Function Attrs: mustprogress nounwind uwtable
define linkonce_odr noundef double @_ZNK7QPointF1xEv(ptr noundef nonnull align 8 dereferenceable(16) %0) #4 comdat align 2 {
  %2 = alloca ptr, align 8
  store ptr %0, ptr %2, align 8
  %3 = load ptr, ptr %2, align 8
  %4 = getelementptr inbounds %class.QPointF, ptr %3, i32 0, i32 0
  %5 = load double, ptr %4, align 8
  ret double %5
}

; Function Attrs: mustprogress uwtable
define void @_ZN19QualityMapperDialog24on_ySpinBox_valueChangedEd(ptr noundef nonnull align 8 dereferenceable(824) %0, double noundef %1) #5 align 2 {
  %3 = alloca ptr, align 8
  %4 = alloca double, align 8
  %5 = alloca %class.QPointF, align 8
  %6 = alloca %class.QPointF, align 8
  store ptr %0, ptr %3, align 8
  store double %1, ptr %4, align 8
  %7 = load ptr, ptr %3, align 8
  %8 = getelementptr inbounds %class.QualityMapperDialog, ptr %7, i32 0, i32 17
  %9 = load ptr, ptr %8, align 8
  %10 = icmp ne ptr %9, null
  br i1 %10, label %11, label %64

11:                                               ; preds = %2
  %12 = getelementptr inbounds %class.QualityMapperDialog, ptr %7, i32 0, i32 17
  %13 = load ptr, ptr %12, align 8
  %14 = getelementptr inbounds i8, ptr %13, i64 16
  %15 = getelementptr inbounds %class.QualityMapperDialog, ptr %7, i32 0, i32 17
  %16 = load ptr, ptr %15, align 8
  %17 = getelementptr inbounds i8, ptr %16, i64 16
  %18 = call { double, double } @_ZNK13QGraphicsItem8scenePosEv(ptr noundef nonnull align 8 dereferenceable(16) %17)
  %19 = getelementptr inbounds { double, double }, ptr %5, i32 0, i32 0
  %20 = extractvalue { double, double } %18, 0
  store double %20, ptr %19, align 8
  %21 = getelementptr inbounds { double, double }, ptr %5, i32 0, i32 1
  %22 = extractvalue { double, double } %18, 1
  store double %22, ptr %21, align 8
  %23 = call noundef double @_ZNK7QPointF1xEv(ptr noundef nonnull align 8 dereferenceable(16) %5)
  %24 = getelementptr inbounds %class.QualityMapperDialog, ptr %7, i32 0, i32 13
  %25 = load ptr, ptr %24, align 8
  %26 = call noundef float @_ZN10CHART_INFO11chartHeightEv(ptr noundef nonnull align 8 dereferenceable(32) %25)
  %27 = getelementptr inbounds %class.QualityMapperDialog, ptr %7, i32 0, i32 13
  %28 = load ptr, ptr %27, align 8
  %29 = call noundef float @_ZN10CHART_INFO11upperBorderEv(ptr noundef nonnull align 8 dereferenceable(32) %28)
  %30 = fadd float %26, %29
  %31 = load double, ptr %4, align 8
  %32 = fptrunc double %31 to float
  %33 = getelementptr inbounds %class.QualityMapperDialog, ptr %7, i32 0, i32 13
  %34 = load ptr, ptr %33, align 8
  %35 = call noundef float @_ZN10CHART_INFO11chartHeightEv(ptr noundef nonnull align 8 dereferenceable(32) %34)
  %36 = call noundef float @_Z21relative2AbsoluteValfff(float noundef %32, float noundef %35)
  %37 = fsub float %30, %36
  %38 = fpext float %37 to double
  call void @_ZN13QGraphicsItem6setPosEdd(ptr noundef nonnull align 8 dereferenceable(16) %14, double noundef %23, double noundef %38)
  %39 = getelementptr inbounds %class.QualityMapperDialog, ptr %7, i32 0, i32 17
  %40 = load ptr, ptr %39, align 8
  %41 = getelementptr inbounds %class.QualityMapperDialog, ptr %7, i32 0, i32 17
  %42 = load ptr, ptr %41, align 8
  %43 = getelementptr inbounds i8, ptr %42, i64 16
  %44 = call { double, double } @_ZNK13QGraphicsItem8scenePosEv(ptr noundef nonnull align 8 dereferenceable(16) %43)
  %45 = getelementptr inbounds { double, double }, ptr %6, i32 0, i32 0
  %46 = extractvalue { double, double } %44, 0
  store double %46, ptr %45, align 8
  %47 = getelementptr inbounds { double, double }, ptr %6, i32 0, i32 1
  %48 = extractvalue { double, double } %44, 1
  store double %48, ptr %47, align 8
  %49 = getelementptr inbounds { double, double }, ptr %6, i32 0, i32 0
  %50 = load double, ptr %49, align 8
  %51 = getelementptr inbounds { double, double }, ptr %6, i32 0, i32 1
  %52 = load double, ptr %51, align 8
  call void @_ZN8TFHandle20updateTfHandlesStateE7QPointF(ptr noundef nonnull align 8 dereferenceable(81) %40, double %50, double %52)
  %53 = getelementptr inbounds %class.QualityMapperDialog, ptr %7, i32 0, i32 17
  %54 = load ptr, ptr %53, align 8
  call void @_ZN19QualityMapperDialog21manageBorderTfHandlesEP8TFHandle(ptr noundef nonnull align 8 dereferenceable(824) %7, ptr noundef %54)
  %55 = getelementptr inbounds %class.QualityMapperDialog, ptr %7, i32 0, i32 17
  %56 = load ptr, ptr %55, align 8
  %57 = call noundef i32 @_ZN8TFHandle10getChannelEv(ptr noundef nonnull align 8 dereferenceable(81) %56)
  call void @_ZN19QualityMapperDialog20updateTfHandlesOrderEi(ptr noundef nonnull align 8 dereferenceable(824) %7, i32 noundef %57)
  call void @_ZN19QualityMapperDialog20drawTransferFunctionEv(ptr noundef nonnull align 8 dereferenceable(824) %7)
  %58 = getelementptr inbounds %class.QualityMapperDialog, ptr %7, i32 0, i32 1
  %59 = getelementptr inbounds %class.Ui_QualityMapperDialogClass, ptr %58, i32 0, i32 65
  %60 = load ptr, ptr %59, align 8
  %61 = call noundef zeroext i1 @_ZNK15QAbstractButton9isCheckedEv(ptr noundef nonnull align 8 dereferenceable(48) %60)
  br i1 %61, label %62, label %63

62:                                               ; preds = %11
  call void @_ZN19QualityMapperDialog22on_applyButton_clickedEv(ptr noundef nonnull align 8 dereferenceable(824) %7)
  br label %63

63:                                               ; preds = %62, %11
  br label %64

64:                                               ; preds = %63, %2
  ret void
}