; Function Attrs: mustprogress uwtable
define void @_ZN19QualityMapperDialog24on_ySpinBox_valueChangedEd(ptr noundef nonnull align 8 dereferenceable(824) %0, double noundef %1) local_unnamed_addr #9 align 2 {
  %3 = alloca %class.QPointF, align 8
  %4 = getelementptr inbounds i8, ptr %0, i64 752
  %5 = load ptr, ptr %4, align 8
  %.not = icmp eq ptr %5, null
  br i1 %.not, label %43, label %6

6:                                                ; preds = %2
  %7 = getelementptr inbounds i8, ptr %5, i64 16
  %8 = tail call { double, double } @_ZNK13QGraphicsItem8scenePosEv(ptr noundef nonnull align 8 dereferenceable(16) %7)
  %9 = extractvalue { double, double } %8, 0
  %10 = getelementptr inbounds i8, ptr %0, i64 696
  %11 = load ptr, ptr %10, align 8
  %12 = load ptr, ptr %11, align 8
  %13 = getelementptr inbounds i8, ptr %12, i64 40
  %14 = load ptr, ptr %13, align 8
  %15 = getelementptr inbounds i8, ptr %14, i64 32
  %16 = load i32, ptr %15, align 4
  %17 = getelementptr inbounds i8, ptr %14, i64 24
  %18 = load i32, ptr %17, align 4
  %19 = add i32 %16, 1
  %20 = sub i32 %19, %18
  %21 = sitofp i32 %20 to float
  %22 = fadd float %21, -1.000000e+01
  %23 = fadd float %22, -1.000000e+01
  %24 = fadd float %23, 1.000000e+01
  %25 = fptrunc double %1 to float
  %26 = tail call noundef float @_Z21relative2AbsoluteValfff(float noundef %25, float noundef %23)
  %27 = fsub float %24, %26
  %28 = fpext float %27 to double
  call void @llvm.lifetime.start.p0(i64 16, ptr nonnull %3)
  store double %9, ptr %3, align 8
  %29 = getelementptr inbounds i8, ptr %3, i64 8
  store double %28, ptr %29, align 8
  call void @_ZN13QGraphicsItem6setPosERK7QPointF(ptr noundef nonnull align 8 dereferenceable(16) %7, ptr noundef nonnull align 8 dereferenceable(16) %3)
  call void @llvm.lifetime.end.p0(i64 16, ptr nonnull %3)
  %30 = load ptr, ptr %4, align 8
  %31 = getelementptr inbounds i8, ptr %30, i64 16
  %32 = call { double, double } @_ZNK13QGraphicsItem8scenePosEv(ptr noundef nonnull align 8 dereferenceable(16) %31)
  %33 = extractvalue { double, double } %32, 0
  %34 = extractvalue { double, double } %32, 1
  call void @_ZN8TFHandle20updateTfHandlesStateE7QPointF(ptr noundef nonnull align 8 dereferenceable(81) %30, double %33, double %34)
  %35 = load ptr, ptr %4, align 8
  call void @_ZN19QualityMapperDialog21manageBorderTfHandlesEP8TFHandle(ptr noundef nonnull align 8 dereferenceable(824) %0, ptr noundef %35)
  %36 = load ptr, ptr %4, align 8
  %37 = getelementptr inbounds i8, ptr %36, i64 64
  %38 = load i32, ptr %37, align 8
  call void @_ZN19QualityMapperDialog20updateTfHandlesOrderEi(ptr noundef nonnull align 8 dereferenceable(824) %0, i32 noundef %38)
  call void @_ZN19QualityMapperDialog20drawTransferFunctionEv(ptr noundef nonnull align 8 dereferenceable(824) %0)
  %39 = getelementptr inbounds i8, ptr %0, i64 568
  %40 = load ptr, ptr %39, align 8
  %41 = call noundef zeroext i1 @_ZNK15QAbstractButton9isCheckedEv(ptr noundef nonnull align 8 dereferenceable(48) %40)
  br i1 %41, label %42, label %43

42:                                               ; preds = %6
  call void @_ZN19QualityMapperDialog22on_applyButton_clickedEv(ptr noundef nonnull align 8 dereferenceable(824) %0)
  br label %43

43:                                               ; preds = %6, %42, %2
  ret void
}